target datalayout = "e-m:e-p270:32:32-p271:32:32-p272:64:64-i64:64-i128:128-f80:128-n8:16:32:64-S128"
target triple = "x86_64-pc-linux-gnu"

%struct.job_info_msg = type { i64, i64, i32, ptr }
%struct.job_info = type { ptr, i64, ptr, ptr, i32, ptr, i32, i32, i32, ptr, i32, ptr, i16, ptr, i64, i16, ptr, ptr, ptr, ptr, ptr, ptr, ptr, ptr, i16, i16, i16, double, i16, i32, i32, i32, ptr, ptr, i64, i32, ptr, i32, i64, i64, ptr, ptr, i32, ptr, ptr, ptr, ptr, i64, ptr, i64, ptr, i32, ptr, ptr, i32, i32, ptr, i32, i32, ptr, ptr, i32, i64, ptr, i16, ptr, i32, i32, ptr, ptr, ptr, ptr, ptr, i32, ptr, i16, i16, i16, i16, i16, i32, i32, i32, i16, ptr, ptr, i64, i16, i32, i64, i64, i64, i32, ptr, ptr, i32, ptr, i8, ptr, ptr, i32, i16, i64, i16, ptr, ptr, ptr, ptr, i16, i32, i16, i16, i64, i16, ptr, i32, ptr, ptr, ptr, i16, i64, i64, ptr, i32, i32, i16, ptr, ptr, ptr, ptr, ptr, ptr, ptr, ptr, i32, ptr, i32, ptr, ptr }

@.str.182 = private unnamed_addr constant [18 x i8] c"Invalid job ID %s\00", align 1
@.str.183 = private unnamed_addr constant [20 x i8] c"Job ID %s not found\00", align 1
@.str.184 = private unnamed_addr constant [59 x i8] c"TimeLimit increment/decrement not supported for job arrays\00", align 1
@.str.185 = private unnamed_addr constant [48 x i8] c"Could not load state information for job %s: %m\00", align 1

; Function Attrs: nounwind uwtable
define internal i32 @_get_job_time(ptr noundef %0) #0 {
  %2 = alloca i32, align 4
  %3 = alloca ptr, align 8
  %4 = alloca i32, align 4
  %5 = alloca i32, align 4
  %6 = alloca ptr, align 8
  %7 = alloca i32, align 4
  %8 = alloca i32, align 4
  %9 = alloca i32, align 4
  %10 = alloca ptr, align 8
  %11 = alloca ptr, align 8
  %12 = alloca i32, align 4
  store ptr %0, ptr %3, align 8
  call void @llvm.lifetime.start.p0(i64 4, ptr %4) #8
  call void @llvm.lifetime.start.p0(i64 4, ptr %5) #8
  call void @llvm.lifetime.start.p0(i64 8, ptr %6) #8
  store ptr null, ptr %6, align 8
  call void @llvm.lifetime.start.p0(i64 4, ptr %7) #8
  store i32 -2, ptr %7, align 4
  call void @llvm.lifetime.start.p0(i64 4, ptr %8) #8
  call void @llvm.lifetime.start.p0(i64 4, ptr %9) #8
  call void @llvm.lifetime.start.p0(i64 8, ptr %10) #8
  call void @llvm.lifetime.start.p0(i64 8, ptr %11) #8
  %13 = load ptr, ptr %3, align 8
  %14 = call i64 @strtol(ptr noundef %13, ptr noundef %6, i32 noundef 10) #8
  %15 = trunc i64 %14 to i32
  store i32 %15, ptr %4, align 4
  %16 = load ptr, ptr %6, align 8
  %17 = getelementptr inbounds i8, ptr %16, i64 0
  %18 = load i8, ptr %17, align 1
  %19 = sext i8 %18 to i32
  %20 = icmp eq i32 %19, 95
  br i1 %20, label %21, label %36

21:                                               ; preds = %1
  %22 = load ptr, ptr %6, align 8
  %23 = getelementptr inbounds i8, ptr %22, i64 1
  %24 = call i64 @strtol(ptr noundef %23, ptr noundef %6, i32 noundef 10) #8
  %25 = trunc i64 %24 to i32
  store i32 %25, ptr %5, align 4
  %26 = load ptr, ptr %6, align 8
  %27 = getelementptr inbounds i8, ptr %26, i64 0
  %28 = load i8, ptr %27, align 1
  %29 = sext i8 %28 to i32
  %30 = icmp ne i32 %29, 0
  br i1 %30, label %31, label %35

31:                                               ; preds = %21
  %32 = load ptr, ptr %3, align 8
  %33 = call i32 (ptr, ...) @error(ptr noundef @.str.182, ptr noundef %32)
  %34 = load i32, ptr %7, align 4
  store i32 %34, ptr %2, align 4
  store i32 1, ptr %12, align 4
  br label %206

35:                                               ; preds = %21
  br label %48

36:                                               ; preds = %1
  %37 = load ptr, ptr %6, align 8
  %38 = getelementptr inbounds i8, ptr %37, i64 0
  %39 = load i8, ptr %38, align 1
  %40 = sext i8 %39 to i32
  %41 = icmp ne i32 %40, 0
  br i1 %41, label %42, label %46

42:                                               ; preds = %36
  %43 = load ptr, ptr %3, align 8
  %44 = call i32 (ptr, ...) @error(ptr noundef @.str.182, ptr noundef %43)
  %45 = load i32, ptr %7, align 4
  store i32 %45, ptr %2, align 4
  store i32 1, ptr %12, align 4
  br label %206

46:                                               ; preds = %36
  store i32 -2, ptr %5, align 4
  br label %47

47:                                               ; preds = %46
  br label %48

48:                                               ; preds = %47, %35
  %49 = load i32, ptr %4, align 4
  %50 = call i32 @slurm_load_job(ptr noundef %10, i32 noundef %49, i16 noundef zeroext 1)
  store i32 %50, ptr %9, align 4
  %51 = load i32, ptr %9, align 4
  %52 = icmp eq i32 %51, 0
  br i1 %52, label %53, label %201

53:                                               ; preds = %48
  %54 = load ptr, ptr %10, align 8
  %55 = getelementptr inbounds nuw %struct.job_info_msg, ptr %54, i32 0, i32 2
  %56 = load i32, ptr %55, align 8
  %57 = icmp eq i32 %56, 0
  br i1 %57, label %58, label %63

58:                                               ; preds = %53
  %59 = load ptr, ptr %3, align 8
  %60 = call i32 (ptr, ...) @error(ptr noundef @.str.183, ptr noundef %59)
  %61 = load ptr, ptr %10, align 8
  call void @slurm_free_job_info_msg(ptr noundef %61)
  %62 = load i32, ptr %7, align 4
  store i32 %62, ptr %2, align 4
  store i32 1, ptr %12, align 4
  br label %206

63:                                               ; preds = %53
  %64 = load ptr, ptr %10, align 8
  %65 = getelementptr inbounds nuw %struct.job_info_msg, ptr %64, i32 0, i32 2
  %66 = load i32, ptr %65, align 8
  %67 = icmp eq i32 %66, 1
  br i1 %67, label %68, label %77

68:                                               ; preds = %63
  %69 = load ptr, ptr %10, align 8
  %70 = getelementptr inbounds nuw %struct.job_info_msg, ptr %69, i32 0, i32 3
  %71 = load ptr, ptr %70, align 8
  %72 = getelementptr inbounds %struct.job_info, ptr %71, i64 0
  %73 = getelementptr inbounds nuw %struct.job_info, ptr %72, i32 0, i32 123
  %74 = load i32, ptr %73, align 8
  store i32 %74, ptr %7, align 4
  %75 = load ptr, ptr %10, align 8
  call void @slurm_free_job_info_msg(ptr noundef %75)
  %76 = load i32, ptr %7, align 4
  store i32 %76, ptr %2, align 4
  store i32 1, ptr %12, align 4
  br label %206

77:                                               ; preds = %63
  br label %78

78:                                               ; preds = %77
  %79 = load ptr, ptr %10, align 8
  %80 = getelementptr inbounds nuw %struct.job_info_msg, ptr %79, i32 0, i32 2
  %81 = load i32, ptr %80, align 8
  %82 = icmp ugt i32 %81, 1
  br i1 %82, label %83, label %90

83:                                               ; preds = %78
  %84 = load i32, ptr %5, align 4
  %85 = icmp eq i32 %84, -2
  br i1 %85, label %86, label %90

86:                                               ; preds = %83
  %87 = call i32 (ptr, ...) @error(ptr noundef @.str.184)
  %88 = load ptr, ptr %10, align 8
  call void @slurm_free_job_info_msg(ptr noundef %88)
  %89 = load i32, ptr %7, align 4
  store i32 %89, ptr %2, align 4
  store i32 1, ptr %12, align 4
  br label %206

90:                                               ; preds = %83, %78
  store i32 0, ptr %8, align 4
  br label %91

91:                                               ; preds = %196, %90
  %92 = load i32, ptr %8, align 4
  %93 = load ptr, ptr %10, align 8
  %94 = getelementptr inbounds nuw %struct.job_info_msg, ptr %93, i32 0, i32 2
  %95 = load i32, ptr %94, align 8
  %96 = icmp ult i32 %92, %95
  br i1 %96, label %97, label %199

97:                                               ; preds = %91
  %98 = load ptr, ptr %10, align 8
  %99 = getelementptr inbounds nuw %struct.job_info_msg, ptr %98, i32 0, i32 3
  %100 = load ptr, ptr %99, align 8
  %101 = load i32, ptr %8, align 4
  %102 = sext i32 %101 to i64
  %103 = getelementptr inbounds %struct.job_info, ptr %100, i64 %102
  %104 = getelementptr inbounds nuw %struct.job_info, ptr %103, i32 0, i32 58
  %105 = load i32, ptr %104, align 4
  %106 = load i32, ptr %4, align 4
  %107 = icmp eq i32 %105, %106
  br i1 %107, label %108, label %137

108:                                              ; preds = %97
  %109 = load ptr, ptr %10, align 8
  %110 = getelementptr inbounds nuw %struct.job_info_msg, ptr %109, i32 0, i32 3
  %111 = load ptr, ptr %110, align 8
  %112 = load i32, ptr %8, align 4
  %113 = sext i32 %112 to i64
  %114 = getelementptr inbounds %struct.job_info, ptr %111, i64 %113
  %115 = getelementptr inbounds nuw %struct.job_info, ptr %114, i32 0, i32 7
  %116 = load i32, ptr %115, align 4
  %117 = icmp eq i32 %116, -2
  br i1 %117, label %118, label %137

118:                                              ; preds = %108
  %119 = load ptr, ptr %10, align 8
  %120 = getelementptr inbounds nuw %struct.job_info_msg, ptr %119, i32 0, i32 3
  %121 = load ptr, ptr %120, align 8
  %122 = load i32, ptr %8, align 4
  %123 = sext i32 %122 to i64
  %124 = getelementptr inbounds %struct.job_info, ptr %121, i64 %123
  %125 = getelementptr inbounds nuw %struct.job_info, ptr %124, i32 0, i32 5
  %126 = load ptr, ptr %125, align 8
  %127 = icmp eq ptr %126, null
  br i1 %127, label %128, label %137

128:                                              ; preds = %118
  %129 = load ptr, ptr %10, align 8
  %130 = getelementptr inbounds nuw %struct.job_info_msg, ptr %129, i32 0, i32 3
  %131 = load ptr, ptr %130, align 8
  %132 = load i32, ptr %8, align 4
  %133 = sext i32 %132 to i64
  %134 = getelementptr inbounds %struct.job_info, ptr %131, i64 %133
  %135 = getelementptr inbounds nuw %struct.job_info, ptr %134, i32 0, i32 123
  %136 = load i32, ptr %135, align 8
  store i32 %136, ptr %7, align 4
  br label %199

137:                                              ; preds = %118, %108, %97
  %138 = load ptr, ptr %10, align 8
  %139 = getelementptr inbounds nuw %struct.job_info_msg, ptr %138, i32 0, i32 3
  %140 = load ptr, ptr %139, align 8
  %141 = load i32, ptr %8, align 4
  %142 = sext i32 %141 to i64
  %143 = getelementptr inbounds %struct.job_info, ptr %140, i64 %142
  %144 = getelementptr inbounds nuw %struct.job_info, ptr %143, i32 0, i32 6
  %145 = load i32, ptr %144, align 8
  %146 = load i32, ptr %4, align 4
  %147 = icmp ne i32 %145, %146
  br i1 %147, label %148, label %149

148:                                              ; preds = %137
  br label %196

149:                                              ; preds = %137
  %150 = load ptr, ptr %10, align 8
  %151 = getelementptr inbounds nuw %struct.job_info_msg, ptr %150, i32 0, i32 3
  %152 = load ptr, ptr %151, align 8
  %153 = load i32, ptr %8, align 4
  %154 = sext i32 %153 to i64
  %155 = getelementptr inbounds %struct.job_info, ptr %152, i64 %154
  %156 = getelementptr inbounds nuw %struct.job_info, ptr %155, i32 0, i32 5
  %157 = load ptr, ptr %156, align 8
  store ptr %157, ptr %11, align 8
  %158 = load i32, ptr %5, align 4
  %159 = icmp eq i32 %158, -2
  br i1 %159, label %186, label %160

160:                                              ; preds = %149
  %161 = load ptr, ptr %10, align 8
  %162 = getelementptr inbounds nuw %struct.job_info_msg, ptr %161, i32 0, i32 3
  %163 = load ptr, ptr %162, align 8
  %164 = load i32, ptr %8, align 4
  %165 = sext i32 %164 to i64
  %166 = getelementptr inbounds %struct.job_info, ptr %163, i64 %165
  %167 = getelementptr inbounds nuw %struct.job_info, ptr %166, i32 0, i32 7
  %168 = load i32, ptr %167, align 4
  %169 = load i32, ptr %5, align 4
  %170 = icmp eq i32 %168, %169
  br i1 %170, label %186, label %171

171:                                              ; preds = %160
  %172 = load ptr, ptr %11, align 8
  %173 = icmp ne ptr %172, null
  br i1 %173, label %174, label %195

174:                                              ; preds = %171
  %175 = load i32, ptr %5, align 4
  %176 = zext i32 %175 to i64
  %177 = load ptr, ptr %11, align 8
  %178 = call i64 @bit_size(ptr noundef %177)
  %179 = icmp slt i64 %176, %178
  br i1 %179, label %180, label %195

180:                                              ; preds = %174
  %181 = load ptr, ptr %11, align 8
  %182 = load i32, ptr %5, align 4
  %183 = zext i32 %182 to i64
  %184 = call i32 @slurm_bit_test(ptr noundef %181, i64 noundef %183)
  %185 = icmp ne i32 %184, 0
  br i1 %185, label %186, label %195

186:                                              ; preds = %180, %160, %149
  %187 = load ptr, ptr %10, align 8
  %188 = getelementptr inbounds nuw %struct.job_info_msg, ptr %187, i32 0, i32 3
  %189 = load ptr, ptr %188, align 8
  %190 = load i32, ptr %8, align 4
  %191 = sext i32 %190 to i64
  %192 = getelementptr inbounds %struct.job_info, ptr %189, i64 %191
  %193 = getelementptr inbounds nuw %struct.job_info, ptr %192, i32 0, i32 123
  %194 = load i32, ptr %193, align 8
  store i32 %194, ptr %7, align 4
  br label %199

195:                                              ; preds = %180, %174, %171
  br label %196

196:                                              ; preds = %195, %148
  %197 = load i32, ptr %8, align 4
  %198 = add nsw i32 %197, 1
  store i32 %198, ptr %8, align 4
  br label %91, !llvm.loop !27

199:                                              ; preds = %186, %128, %91
  %200 = load ptr, ptr %10, align 8
  call void @slurm_free_job_info_msg(ptr noundef %200)
  br label %204

201:                                              ; preds = %48
  %202 = load ptr, ptr %3, align 8
  %203 = call i32 (ptr, ...) @error(ptr noundef @.str.185, ptr noundef %202)
  br label %204

204:                                              ; preds = %201, %199
  %205 = load i32, ptr %7, align 4
  store i32 %205, ptr %2, align 4
  store i32 1, ptr %12, align 4
  br label %206

206:                                              ; preds = %204, %86, %68, %58, %42, %31
  call void @llvm.lifetime.end.p0(i64 8, ptr %11) #8
  call void @llvm.lifetime.end.p0(i64 8, ptr %10) #8
  call void @llvm.lifetime.end.p0(i64 4, ptr %9) #8
  call void @llvm.lifetime.end.p0(i64 4, ptr %8) #8
  call void @llvm.lifetime.end.p0(i64 4, ptr %7) #8
  call void @llvm.lifetime.end.p0(i64 8, ptr %6) #8
  call void @llvm.lifetime.end.p0(i64 4, ptr %5) #8
  call void @llvm.lifetime.end.p0(i64 4, ptr %4) #8
  %207 = load i32, ptr %2, align 4
  ret i32 %207
}