; Function Attrs: nounwind uwtable
define internal fastcc i32 @_get_job_time(ptr noundef nonnull %0) unnamed_addr #0 {
  %2 = alloca ptr, align 8
  %3 = alloca ptr, align 8
  call void @llvm.lifetime.start.p0(i64 8, ptr nonnull %2) #13
  store ptr null, ptr %2, align 8
  call void @llvm.lifetime.start.p0(i64 8, ptr nonnull %3) #13
  %4 = call i64 @strtol(ptr noundef nonnull %0, ptr noundef nonnull %2, i32 noundef 10) #13
  %5 = trunc i64 %4 to i32
  %6 = load ptr, ptr %2, align 8
  %7 = load i8, ptr %6, align 1
  switch i8 %7, label %16 [
    i8 95, label %8
    i8 0, label %18
  ]

8:                                                ; preds = %1
  %9 = getelementptr inbounds nuw i8, ptr %6, i64 1
  %10 = call i64 @strtol(ptr noundef nonnull %9, ptr noundef nonnull %2, i32 noundef 10) #13
  %11 = trunc i64 %10 to i32
  %12 = load ptr, ptr %2, align 8
  %13 = load i8, ptr %12, align 1
  %.not41 = icmp eq i8 %13, 0
  br i1 %.not41, label %18, label %14

14:                                               ; preds = %8
  %15 = tail call i32 (ptr, ...) @error(ptr noundef nonnull @.str.182, ptr noundef nonnull %0) #13
  br label %86

16:                                               ; preds = %1
  %17 = tail call i32 (ptr, ...) @error(ptr noundef nonnull @.str.182, ptr noundef nonnull %0) #13
  br label %86

18:                                               ; preds = %1, %8
  %.034 = phi i32 [ %11, %8 ], [ -2, %1 ]
  %19 = call i32 @slurm_load_job(ptr noundef nonnull %3, i32 noundef %5, i16 noundef zeroext 1) #13
  %20 = icmp eq i32 %19, 0
  br i1 %20, label %21, label %84

21:                                               ; preds = %18
  %22 = load ptr, ptr %3, align 8
  %23 = getelementptr inbounds nuw i8, ptr %22, i64 16
  %24 = load i32, ptr %23, align 8
  switch i32 %24, label %33 [
    i32 0, label %25
    i32 1, label %28
  ]

25:                                               ; preds = %21
  %26 = call i32 (ptr, ...) @error(ptr noundef nonnull @.str.183, ptr noundef nonnull %0) #13
  %27 = load ptr, ptr %3, align 8
  call void @slurm_free_job_info_msg(ptr noundef %27) #13
  br label %86

28:                                               ; preds = %21
  %29 = getelementptr inbounds nuw i8, ptr %22, i64 24
  %30 = load ptr, ptr %29, align 8
  %31 = getelementptr inbounds nuw i8, ptr %30, i64 848
  %32 = load i32, ptr %31, align 8
  call void @slurm_free_job_info_msg(ptr noundef nonnull %22) #13
  br label %86

33:                                               ; preds = %21
  %34 = icmp eq i32 %.034, -2
  br i1 %34, label %36, label %.lr.ph

.lr.ph:                                           ; preds = %33
  %35 = zext i32 %.034 to i64
  br label %39

36:                                               ; preds = %33
  %37 = call i32 (ptr, ...) @error(ptr noundef nonnull @.str.184) #13
  %38 = load ptr, ptr %3, align 8
  call void @slurm_free_job_info_msg(ptr noundef %38) #13
  br label %86

39:                                               ; preds = %.lr.ph, %77
  %40 = phi ptr [ %22, %.lr.ph ], [ %78, %77 ]
  %indvars.iv = phi i64 [ 0, %.lr.ph ], [ %indvars.iv.next, %77 ]
  %41 = getelementptr inbounds nuw i8, ptr %40, i64 24
  %42 = load ptr, ptr %41, align 8
  %43 = getelementptr inbounds nuw %struct.job_info, ptr %42, i64 %indvars.iv
  %44 = getelementptr inbounds nuw i8, ptr %43, i64 412
  %45 = load i32, ptr %44, align 4
  %46 = icmp eq i32 %45, %5
  br i1 %46, label %47, label %58

47:                                               ; preds = %39
  %48 = getelementptr inbounds nuw i8, ptr %43, i64 52
  %49 = load i32, ptr %48, align 4
  %50 = icmp eq i32 %49, -2
  br i1 %50, label %51, label %58

51:                                               ; preds = %47
  %52 = getelementptr inbounds nuw i8, ptr %43, i64 40
  %53 = load ptr, ptr %52, align 8
  %54 = icmp eq ptr %53, null
  br i1 %54, label %55, label %58

55:                                               ; preds = %51
  %56 = getelementptr inbounds nuw i8, ptr %43, i64 848
  %57 = load i32, ptr %56, align 8
  br label %.loopexit

58:                                               ; preds = %51, %47, %39
  %59 = getelementptr inbounds nuw i8, ptr %43, i64 48
  %60 = load i32, ptr %59, align 8
  %.not42 = icmp eq i32 %60, %5
  br i1 %.not42, label %61, label %77

61:                                               ; preds = %58
  %62 = getelementptr inbounds nuw i8, ptr %43, i64 40
  %63 = load ptr, ptr %62, align 8
  %64 = getelementptr inbounds nuw i8, ptr %43, i64 52
  %65 = load i32, ptr %64, align 4
  %66 = icmp eq i32 %65, %.034
  br i1 %66, label %split, label %67

67:                                               ; preds = %61
  %.not43 = icmp eq ptr %63, null
  br i1 %.not43, label %77, label %68

68:                                               ; preds = %67
  %69 = call i64 @bit_size(ptr noundef nonnull %63) #13
  %70 = icmp sgt i64 %69, %35
  br i1 %70, label %71, label %._crit_edge56

._crit_edge56:                                    ; preds = %68
  %.pre57 = load ptr, ptr %3, align 8
  br label %77

71:                                               ; preds = %68
  %72 = call i32 @slurm_bit_test(ptr noundef nonnull %63, i64 noundef %35) #13
  %.not44 = icmp eq i32 %72, 0
  %.pre58 = load ptr, ptr %3, align 8
  br i1 %.not44, label %77, label %._crit_edge

._crit_edge:                                      ; preds = %71
  %.phi.trans.insert = getelementptr inbounds nuw i8, ptr %.pre58, i64 24
  %.pre55 = load ptr, ptr %.phi.trans.insert, align 8
  br label %split

split:                                            ; preds = %61, %._crit_edge
  %73 = phi ptr [ %.pre55, %._crit_edge ], [ %42, %61 ]
  %74 = phi ptr [ %.pre58, %._crit_edge ], [ %40, %61 ]
  %75 = getelementptr inbounds nuw %struct.job_info, ptr %73, i64 %indvars.iv, i32 123
  %76 = load i32, ptr %75, align 8
  br label %.loopexit

77:                                               ; preds = %._crit_edge56, %67, %71, %58
  %78 = phi ptr [ %.pre57, %._crit_edge56 ], [ %40, %67 ], [ %.pre58, %71 ], [ %40, %58 ]
  %indvars.iv.next = add nuw nsw i64 %indvars.iv, 1
  %79 = getelementptr inbounds nuw i8, ptr %78, i64 16
  %80 = load i32, ptr %79, align 8
  %81 = zext i32 %80 to i64
  %82 = icmp samesign ult i64 %indvars.iv.next, %81
  br i1 %82, label %39, label %.loopexit, !llvm.loop !26

.loopexit:                                        ; preds = %77, %split, %55
  %83 = phi ptr [ %40, %55 ], [ %74, %split ], [ %78, %77 ]
  %.036 = phi i32 [ %57, %55 ], [ %76, %split ], [ -2, %77 ]
  call void @slurm_free_job_info_msg(ptr noundef nonnull %83) #13
  br label %86

84:                                               ; preds = %18
  %85 = call i32 (ptr, ...) @error(ptr noundef nonnull @.str.185, ptr noundef nonnull %0) #13
  br label %86

86:                                               ; preds = %.loopexit, %84, %36, %28, %25, %16, %14
  %.0 = phi i32 [ -2, %14 ], [ -2, %25 ], [ %32, %28 ], [ -2, %36 ], [ -2, %16 ], [ %.036, %.loopexit ], [ -2, %84 ]
  call void @llvm.lifetime.end.p0(i64 8, ptr nonnull %3) #13
  call void @llvm.lifetime.end.p0(i64 8, ptr nonnull %2) #13
  ret i32 %.0
}